target datalayout = "e-m:e-p270:32:32-p271:32:32-p272:64:64-i64:64-i128:128-f80:128-n8:16:32:64-S128"
target triple = "x86_64-pc-linux-gnu"

%"class.std::__shared_count" = type { ptr }
%"class.std::__cxx11::basic_string" = type { %"struct.std::__cxx11::basic_string<char>::_Alloc_hider", i64, %union.anon }
%"struct.std::__cxx11::basic_string<char>::_Alloc_hider" = type { ptr }
%union.anon = type { i64, [8 x i8] }
%"class.rocksdb::CTRCipherStream" = type { %"class.rocksdb::BlockAccessCipherStream", %"class.std::shared_ptr.3", %"class.std::__cxx11::basic_string", i64 }
%"class.rocksdb::BlockAccessCipherStream" = type { ptr }
%"class.std::shared_ptr.3" = type { %"class.std::__shared_ptr.4" }
%"class.std::__shared_ptr.4" = type { ptr, %"class.std::__shared_count" }

; Function Attrs: mustprogress nounwind uwtable
define linkonce_odr noundef ptr @_ZNKSt12__shared_ptrIN7rocksdb11BlockCipherELN9__gnu_cxx12_Lock_policyE2EE3getEv(ptr noundef nonnull align 8 dereferenceable(16) %0) #7 comdat align 2 {
  %2 = alloca ptr, align 8
  store ptr %0, ptr %2, align 8, !tbaa !267
  %3 = load ptr, ptr %2, align 8
  %4 = getelementptr inbounds nuw %"class.std::__shared_ptr.4", ptr %3, i32 0, i32 0
  %5 = load ptr, ptr %4, align 8, !tbaa !269
  ret ptr %5
}

; Function Attrs: mustprogress nounwind uwtable
define linkonce_odr noundef ptr @_ZNKSt19__shared_ptr_accessIN7rocksdb11BlockCipherELN9__gnu_cxx12_Lock_policyE2ELb0ELb0EE6_M_getEv(ptr noundef nonnull align 1 dereferenceable(1) %0) #7 comdat align 2 {
  %2 = alloca ptr, align 8
  store ptr %0, ptr %2, align 8, !tbaa !248
  %3 = load ptr, ptr %2, align 8
  %4 = call noundef ptr @_ZNKSt12__shared_ptrIN7rocksdb11BlockCipherELN9__gnu_cxx12_Lock_policyE2EE3getEv(ptr noundef nonnull align 8 dereferenceable(16) %3) #3
  ret ptr %4
}

; Function Attrs: mustprogress nounwind uwtable
define linkonce_odr noundef ptr @_ZNKSt19__shared_ptr_accessIN7rocksdb11BlockCipherELN9__gnu_cxx12_Lock_policyE2ELb0ELb0EEptEv(ptr noundef nonnull align 1 dereferenceable(1) %0) #7 comdat align 2 {
  %2 = alloca ptr, align 8
  store ptr %0, ptr %2, align 8, !tbaa !248
  %3 = load ptr, ptr %2, align 8
  %4 = call noundef ptr @_ZNKSt19__shared_ptr_accessIN7rocksdb11BlockCipherELN9__gnu_cxx12_Lock_policyE2ELb0ELb0EE6_M_getEv(ptr noundef nonnull align 1 dereferenceable(1) %3) #3
  ret ptr %4
}

; Function Attrs: mustprogress uwtable
define void @_ZN7rocksdb15CTRCipherStream15AllocateScratchERNSt7__cxx1112basic_stringIcSt11char_traitsIcESaIcEEE(ptr noundef nonnull align 8 dereferenceable(64) %0, ptr noundef nonnull align 8 dereferenceable(32) %1) unnamed_addr #4 align 2 {
  %3 = alloca ptr, align 8
  %4 = alloca ptr, align 8
  %5 = alloca i64, align 8
  store ptr %0, ptr %3, align 8, !tbaa !246
  store ptr %1, ptr %4, align 8, !tbaa !224
  %6 = load ptr, ptr %3, align 8
  call void @llvm.lifetime.start.p0(i64 8, ptr %5) #3
  %7 = getelementptr inbounds nuw %"class.rocksdb::CTRCipherStream", ptr %6, i32 0, i32 1
  %8 = call noundef ptr @_ZNKSt19__shared_ptr_accessIN7rocksdb11BlockCipherELN9__gnu_cxx12_Lock_policyE2ELb0ELb0EEptEv(ptr noundef nonnull align 1 dereferenceable(1) %7) #3
  %9 = load ptr, ptr %8, align 8, !tbaa !29
  %10 = getelementptr inbounds ptr, ptr %9, i64 19
  %11 = load ptr, ptr %10, align 8
  %12 = call noundef i64 %11(ptr noundef nonnull align 8 dereferenceable(32) %8)
  store i64 %12, ptr %5, align 8, !tbaa !19
  %13 = load ptr, ptr %4, align 8, !tbaa !224
  %14 = load i64, ptr %5, align 8, !tbaa !19
  call void @_ZNSt7__cxx1112basic_stringIcSt11char_traitsIcESaIcEE7reserveEm(ptr noundef nonnull align 8 dereferenceable(32) %13, i64 noundef %14)
  call void @llvm.lifetime.end.p0(i64 8, ptr %5) #3
  ret void
}